target datalayout = "e-m:e-p270:32:32-p271:32:32-p272:64:64-i64:64-i128:128-f80:128-n8:16:32:64-S128"
target triple = "x86_64-pc-linux-gnu"

%struct.archive_write_program_data = type { i32, i32, i32, ptr, i64, i64, ptr }

; Function Attrs: nounwind uwtable
define dso_local ptr @__archive_write_program_allocate(ptr noundef %0) #0 {
  %2 = alloca ptr, align 8
  %3 = alloca ptr, align 8
  %4 = alloca ptr, align 8
  store ptr %0, ptr %3, align 8
  %5 = call noalias ptr @calloc(i64 noundef 1, i64 noundef 48) #7
  store ptr %5, ptr %4, align 8
  %6 = load ptr, ptr %4, align 8
  %7 = icmp eq ptr %6, null
  br i1 %7, label %8, label %10

8:                                                ; preds = %1
  %9 = load ptr, ptr %4, align 8
  store ptr %9, ptr %2, align 8
  br label %20

10:                                               ; preds = %1
  %11 = load ptr, ptr %4, align 8
  %12 = getelementptr inbounds %struct.archive_write_program_data, ptr %11, i32 0, i32 1
  store i32 -1, ptr %12, align 4
  %13 = load ptr, ptr %4, align 8
  %14 = getelementptr inbounds %struct.archive_write_program_data, ptr %13, i32 0, i32 2
  store i32 -1, ptr %14, align 8
  %15 = load ptr, ptr %3, align 8
  %16 = call noalias ptr @strdup(ptr noundef %15) #8
  %17 = load ptr, ptr %4, align 8
  %18 = getelementptr inbounds %struct.archive_write_program_data, ptr %17, i32 0, i32 6
  store ptr %16, ptr %18, align 8
  %19 = load ptr, ptr %4, align 8
  store ptr %19, ptr %2, align 8
  br label %20

20:                                               ; preds = %10, %8
  %21 = load ptr, ptr %2, align 8
  ret ptr %21
}