; Function Attrs: mustprogress nofree nounwind willreturn memory(write, argmem: readwrite, inaccessiblemem: readwrite) uwtable
define dso_local noalias noundef ptr @__archive_write_program_allocate(ptr noundef readonly captures(none) %0) local_unnamed_addr #4 {
  %2 = tail call noalias dereferenceable_or_null(48) ptr @calloc(i64 noundef 1, i64 noundef 48) #12
  %3 = icmp eq ptr %2, null
  br i1 %3, label %9, label %4

4:                                                ; preds = %1
  %5 = getelementptr inbounds nuw i8, ptr %2, i64 4
  store i32 -1, ptr %5, align 4
  %6 = getelementptr inbounds nuw i8, ptr %2, i64 8
  store i32 -1, ptr %6, align 8
  %7 = tail call noalias ptr @strdup(ptr noundef %0) #11
  %8 = getelementptr inbounds nuw i8, ptr %2, i64 40
  store ptr %7, ptr %8, align 8
  br label %9

9:                                                ; preds = %1, %4
  ret ptr %2
}